target datalayout = "e-m:e-p270:32:32-p271:32:32-p272:64:64-i64:64-i128:128-f80:128-n8:16:32:64-S128"
target triple = "x86_64-pc-linux-gnu"

%struct.strbuf = type { i64, i64, ptr }
%struct.trace_key = type { ptr, i32, i8 }
%struct.index_state = type { ptr, i32, i32, i32, i32, ptr, ptr, ptr, %struct.cache_time, i8, i32, %struct.hashmap, %struct.hashmap, %struct.object_id, ptr, ptr, ptr, ptr, ptr, ptr, ptr }
%struct.cache_time = type { i32, i32 }
%struct.hashmap = type { ptr, ptr, ptr, i32, i32, i32, i32, i8 }
%struct.object_id = type { [32 x i8], i32 }
%struct.cache_entry = type { %struct.hashmap_entry, %struct.stat_data, i32, i32, i32, i32, i32, %struct.object_id, [0 x i8] }
%struct.hashmap_entry = type { ptr, i32 }
%struct.stat_data = type { %struct.cache_time, %struct.cache_time, i32, i32, i32, i32, i32 }
%struct.untracked_cache = type { %struct.oid_stat, %struct.oid_stat, ptr, ptr, %struct.strbuf, i32, ptr, i32, i32, i32, i32, i8 }
%struct.oid_stat = type { %struct.stat_data, %struct.object_id, i32 }

@trace_fsmonitor = dso_local global { ptr, i32, i8, [3 x i8] } { ptr @.str, i32 0, i8 0, [3 x i8] zeroinitializer }, align 8
@.str.2 = private unnamed_addr constant [4 x i8] c"%lu\00", align 1
@.str.5 = private unnamed_addr constant [12 x i8] c"fsmonitor.c\00", align 1
@.str.25 = private unnamed_addr constant [14 x i8] c"add fsmonitor\00", align 1
@__const.initialize_fsmonitor_last_update.last_update = private unnamed_addr constant %struct.strbuf { i64 0, i64 0, ptr @strbuf_slopbuf }, align 8

; Function Attrs: nounwind uwtable
define internal void @initialize_fsmonitor_last_update(ptr noundef %0) #0 {
  %2 = alloca ptr, align 8
  %3 = alloca %struct.strbuf, align 8
  store ptr %0, ptr %2, align 8, !tbaa !4
  call void @llvm.lifetime.start.p0(i64 24, ptr %3) #8
  call void @llvm.memcpy.p0.p0.i64(ptr align 8 %3, ptr align 8 @__const.initialize_fsmonitor_last_update.last_update, i64 24, i1 false)
  %4 = call i64 @getnanotime()
  call void (ptr, ptr, ...) @strbuf_addf(ptr noundef %3, ptr noundef @.str.2, i64 noundef %4)
  %5 = call ptr @strbuf_detach(ptr noundef %3, ptr noundef null)
  %6 = load ptr, ptr %2, align 8, !tbaa !4
  %7 = getelementptr inbounds nuw %struct.index_state, ptr %6, i32 0, i32 15
  store ptr %5, ptr %7, align 8, !tbaa !18
  call void @llvm.lifetime.end.p0(i64 24, ptr %3) #8
  ret void
}

; Function Attrs: inlinehint nounwind uwtable
define internal i32 @trace_pass_fl(ptr noundef %0) #4 {
  %2 = alloca ptr, align 8
  store ptr %0, ptr %2, align 8, !tbaa !44
  %3 = load ptr, ptr %2, align 8, !tbaa !44
  %4 = getelementptr inbounds nuw %struct.trace_key, ptr %3, i32 0, i32 1
  %5 = load i32, ptr %4, align 8, !tbaa !46
  %6 = icmp ne i32 %5, 0
  br i1 %6, label %15, label %7

7:                                                ; preds = %1
  %8 = load ptr, ptr %2, align 8, !tbaa !44
  %9 = getelementptr inbounds nuw %struct.trace_key, ptr %8, i32 0, i32 2
  %10 = load i8, ptr %9, align 4
  %11 = and i8 %10, 1
  %12 = zext i8 %11 to i32
  %13 = icmp ne i32 %12, 0
  %14 = xor i1 %13, true
  br label %15

15:                                               ; preds = %7, %1
  %16 = phi i1 [ true, %1 ], [ %14, %7 ]
  %17 = zext i1 %16 to i32
  ret i32 %17
}

; Function Attrs: nounwind uwtable
define dso_local void @add_fsmonitor(ptr noundef %0) #0 {
  %2 = alloca ptr, align 8
  %3 = alloca i32, align 4
  store ptr %0, ptr %2, align 8, !tbaa !4
  call void @llvm.lifetime.start.p0(i64 4, ptr %3) #8
  %4 = load ptr, ptr %2, align 8, !tbaa !4
  %5 = getelementptr inbounds nuw %struct.index_state, ptr %4, i32 0, i32 15
  %6 = load ptr, ptr %5, align 8, !tbaa !18
  %7 = icmp ne ptr %6, null
  br i1 %7, label %57, label %8

8:                                                ; preds = %1
  br label %9

9:                                                ; preds = %8
  %10 = call i32 @trace_pass_fl(ptr noundef @trace_fsmonitor)
  %11 = icmp ne i32 %10, 0
  br i1 %11, label %12, label %13

12:                                               ; preds = %9
  call void (ptr, i32, ptr, ptr, ...) @trace_printf_key_fl(ptr noundef @.str.5, i32 noundef 764, ptr noundef @trace_fsmonitor, ptr noundef @.str.25)
  br label %13

13:                                               ; preds = %12, %9
  br label %14

14:                                               ; preds = %13
  br label %15

15:                                               ; preds = %14
  %16 = load ptr, ptr %2, align 8, !tbaa !4
  %17 = getelementptr inbounds nuw %struct.index_state, ptr %16, i32 0, i32 4
  %18 = load i32, ptr %17, align 4, !tbaa !58
  %19 = or i32 %18, 256
  store i32 %19, ptr %17, align 4, !tbaa !58
  %20 = load ptr, ptr %2, align 8, !tbaa !4
  call void @initialize_fsmonitor_last_update(ptr noundef %20)
  store i32 0, ptr %3, align 4, !tbaa !14
  br label %21

21:                                               ; preds = %38, %15
  %22 = load i32, ptr %3, align 4, !tbaa !14
  %23 = load ptr, ptr %2, align 8, !tbaa !4
  %24 = getelementptr inbounds nuw %struct.index_state, ptr %23, i32 0, i32 2
  %25 = load i32, ptr %24, align 4, !tbaa !43
  %26 = icmp ult i32 %22, %25
  br i1 %26, label %27, label %41

27:                                               ; preds = %21
  %28 = load ptr, ptr %2, align 8, !tbaa !4
  %29 = getelementptr inbounds nuw %struct.index_state, ptr %28, i32 0, i32 0
  %30 = load ptr, ptr %29, align 8, !tbaa !48
  %31 = load i32, ptr %3, align 4, !tbaa !14
  %32 = zext i32 %31 to i64
  %33 = getelementptr inbounds nuw ptr, ptr %30, i64 %32
  %34 = load ptr, ptr %33, align 8, !tbaa !49
  %35 = getelementptr inbounds nuw %struct.cache_entry, ptr %34, i32 0, i32 3
  %36 = load i32, ptr %35, align 8, !tbaa !14
  %37 = and i32 %36, -2097153
  store i32 %37, ptr %35, align 8, !tbaa !14
  br label %38

38:                                               ; preds = %27
  %39 = load i32, ptr %3, align 4, !tbaa !14
  %40 = add i32 %39, 1
  store i32 %40, ptr %3, align 4, !tbaa !14
  br label %21, !llvm.loop !64

41:                                               ; preds = %21
  %42 = load ptr, ptr %2, align 8, !tbaa !4
  %43 = getelementptr inbounds nuw %struct.index_state, ptr %42, i32 0, i32 14
  %44 = load ptr, ptr %43, align 8, !tbaa !57
  %45 = icmp ne ptr %44, null
  br i1 %45, label %46, label %55

46:                                               ; preds = %41
  %47 = load ptr, ptr %2, align 8, !tbaa !4
  call void @add_untracked_cache(ptr noundef %47)
  %48 = load ptr, ptr %2, align 8, !tbaa !4
  %49 = getelementptr inbounds nuw %struct.index_state, ptr %48, i32 0, i32 14
  %50 = load ptr, ptr %49, align 8, !tbaa !57
  %51 = getelementptr inbounds nuw %struct.untracked_cache, ptr %50, i32 0, i32 11
  %52 = load i8, ptr %51, align 8
  %53 = and i8 %52, -2
  %54 = or i8 %53, 1
  store i8 %54, ptr %51, align 8
  br label %55

55:                                               ; preds = %46, %41
  %56 = load ptr, ptr %2, align 8, !tbaa !4
  call void @refresh_fsmonitor(ptr noundef %56)
  br label %57

57:                                               ; preds = %55, %1
  call void @llvm.lifetime.end.p0(i64 4, ptr %3) #8
  ret void
}