; Function Attrs: nounwind uwtable
define dso_local void @add_fsmonitor(ptr noundef %0) local_unnamed_addr #0 {
  %2 = alloca %struct.strbuf, align 8
  %3 = getelementptr inbounds nuw i8, ptr %0, i64 208
  %4 = load ptr, ptr %3, align 8, !tbaa !12
  %.not = icmp eq ptr %4, null
  br i1 %.not, label %5, label %34

5:                                                ; preds = %1
  %trace_fsmonitor.val = load i32, ptr getelementptr inbounds nuw (i8, ptr @trace_fsmonitor, i64 8), align 8, !tbaa !35
  %trace_fsmonitor.val13 = load i8, ptr getelementptr inbounds nuw (i8, ptr @trace_fsmonitor, i64 12), align 4
  %.not.i = icmp eq i32 %trace_fsmonitor.val, 0
  %6 = and i8 %trace_fsmonitor.val13, 1
  %.not1114 = icmp ne i8 %6, 0
  %.not11 = select i1 %.not.i, i1 %.not1114, i1 false
  br i1 %.not11, label %8, label %7

7:                                                ; preds = %5
  tail call void (ptr, i32, ptr, ptr, ...) @trace_printf_key_fl(ptr noundef nonnull @.str.5, i32 noundef 764, ptr noundef nonnull @trace_fsmonitor, ptr noundef nonnull @.str.25) #8
  br label %8

8:                                                ; preds = %7, %5
  %9 = getelementptr inbounds nuw i8, ptr %0, i64 20
  %10 = load i32, ptr %9, align 4, !tbaa !49
  %11 = or i32 %10, 256
  store i32 %11, ptr %9, align 4, !tbaa !49
  call void @llvm.lifetime.start.p0(i64 24, ptr nonnull %2) #8
  call void @llvm.memcpy.p0.p0.i64(ptr noundef nonnull align 8 dereferenceable(24) %2, ptr noundef nonnull align 8 dereferenceable(24) @__const.initialize_fsmonitor_last_update.last_update, i64 24, i1 false)
  %12 = tail call i64 @getnanotime() #8
  call void (ptr, ptr, ...) @strbuf_addf(ptr noundef nonnull %2, ptr noundef nonnull @.str.2, i64 noundef %12) #8
  %13 = call ptr @strbuf_detach(ptr noundef nonnull %2, ptr noundef null) #8
  store ptr %13, ptr %3, align 8, !tbaa !12
  call void @llvm.lifetime.end.p0(i64 24, ptr nonnull %2) #8
  %14 = getelementptr inbounds nuw i8, ptr %0, i64 12
  %15 = load i32, ptr %14, align 4, !tbaa !34
  %.not16 = icmp eq i32 %15, 0
  br i1 %.not16, label %._crit_edge, label %.lr.ph

.lr.ph:                                           ; preds = %8
  %16 = load ptr, ptr %0, align 8, !tbaa !37
  br label %17

17:                                               ; preds = %.lr.ph, %17
  %indvars.iv = phi i64 [ 0, %.lr.ph ], [ %indvars.iv.next, %17 ]
  %18 = getelementptr inbounds nuw ptr, ptr %16, i64 %indvars.iv
  %19 = load ptr, ptr %18, align 8, !tbaa !38
  %20 = getelementptr inbounds nuw i8, ptr %19, i64 56
  %21 = load i32, ptr %20, align 8, !tbaa !40
  %22 = and i32 %21, -2097153
  store i32 %22, ptr %20, align 8, !tbaa !40
  %indvars.iv.next = add nuw nsw i64 %indvars.iv, 1
  %23 = load i32, ptr %14, align 4, !tbaa !34
  %24 = zext i32 %23 to i64
  %25 = icmp samesign ult i64 %indvars.iv.next, %24
  br i1 %25, label %17, label %._crit_edge, !llvm.loop !56

._crit_edge:                                      ; preds = %17, %8
  %26 = getelementptr inbounds nuw i8, ptr %0, i64 200
  %27 = load ptr, ptr %26, align 8, !tbaa !48
  %.not12 = icmp eq ptr %27, null
  br i1 %.not12, label %33, label %28

28:                                               ; preds = %._crit_edge
  call void @add_untracked_cache(ptr noundef nonnull %0) #8
  %29 = load ptr, ptr %26, align 8, !tbaa !48
  %30 = getelementptr inbounds nuw i8, ptr %29, i64 224
  %31 = load i8, ptr %30, align 8
  %32 = or i8 %31, 1
  store i8 %32, ptr %30, align 8
  br label %33

33:                                               ; preds = %28, %._crit_edge
  call void @refresh_fsmonitor(ptr noundef nonnull %0)
  br label %34

34:                                               ; preds = %33, %1
  ret void
}